; Function Attrs: nounwind uwtable
define void @lv_display_set_rotation(ptr noundef %0, i32 noundef %1) local_unnamed_addr #0 {
  %3 = icmp eq ptr %0, null
  br i1 %3, label %4, label %.thread

4:                                                ; preds = %2
  %5 = load ptr, ptr getelementptr inbounds nuw (i8, ptr @lv_global, i64 40), align 8, !tbaa !33
  %6 = icmp eq ptr %5, null
  br i1 %6, label %13, label %.thread

.thread:                                          ; preds = %2, %4
  %.06 = phi ptr [ %5, %4 ], [ %0, %2 ]
  %7 = getelementptr inbounds nuw i8, ptr %.06, i64 888
  %8 = trunc i32 %1 to i8
  %9 = load i8, ptr %7, align 8
  %10 = and i8 %8, 7
  %11 = and i8 %9, -8
  %12 = or disjoint i8 %11, %10
  store i8 %12, ptr %7, align 8
  tail call fastcc void @update_resolution(ptr noundef %.06)
  br label %13

13:                                               ; preds = %4, %.thread
  ret void
}